target datalayout = "e-m:e-p270:32:32-p271:32:32-p272:64:64-i64:64-i128:128-f80:128-n8:16:32:64-S128"
target triple = "x86_64-pc-linux-gnu"

%struct._dfilter_loc = type { i64, i64 }
%struct.dfwork_t = type { ptr, i32, ptr, i32, ptr, ptr, ptr, ptr, i32, i32, ptr, ptr, ptr, ptr, ptr, ptr, i32 }
%struct._header_field_info = type { ptr, ptr, i32, i32, ptr, i64, ptr, i32, i32, i32, i32, ptr }

@.str = private unnamed_addr constant [8 x i8] c"DFilter\00", align 1
@.str.1 = private unnamed_addr constant [24 x i8] c"epan/dfilter/semcheck.c\00", align 1
@.str.6 = private unnamed_addr constant [31 x i8] c"Invalid syntax node type '%s'.\00", align 1
@.str.7 = private unnamed_addr constant [60 x i8] c"\22%s\22 is a %s and cannot be sliced into a sequence of bytes.\00", align 1
@.str.8 = private unnamed_addr constant [88 x i8] c"Return value of function \22%s\22 is a %s and cannot be converted into a sequence of bytes.\00", align 1
@.str.9 = private unnamed_addr constant [37 x i8] c"Range is not supported for entity %s\00", align 1
@__func__.check_slice = private unnamed_addr constant [12 x i8] c"check_slice\00", align 1

; Function Attrs: null_pointer_is_valid sspstrong uwtable
define hidden i32 @check_slice(ptr noundef %0, ptr noundef %1, i32 noundef %2) #0 {
  %4 = alloca ptr, align 8
  %5 = alloca ptr, align 8
  %6 = alloca i32, align 4
  %7 = alloca ptr, align 8
  %8 = alloca ptr, align 8
  %9 = alloca i32, align 4
  %10 = alloca i32, align 4
  %11 = alloca %struct._dfilter_loc, align 8
  %12 = alloca %struct._dfilter_loc, align 8
  %13 = alloca %struct._dfilter_loc, align 8
  store ptr %0, ptr %4, align 8
  store ptr %1, ptr %5, align 8
  store i32 %2, ptr %6, align 4
  call void @llvm.lifetime.start.p0(i64 8, ptr %7) #8
  call void @llvm.lifetime.start.p0(i64 8, ptr %8) #8
  call void @llvm.lifetime.start.p0(i64 4, ptr %9) #8
  call void @llvm.lifetime.start.p0(i64 4, ptr %10) #8
  store i32 0, ptr %10, align 4
  %14 = load ptr, ptr %5, align 8
  %15 = call ptr @sttype_slice_entity(ptr noundef %14)
  store ptr %15, ptr %7, align 8
  br label %16

16:                                               ; preds = %3
  br label %17

17:                                               ; preds = %16
  br label %18

18:                                               ; preds = %17
  %19 = load ptr, ptr %4, align 8
  %20 = load ptr, ptr %7, align 8
  call void @resolve_unparsed(ptr noundef %19, ptr noundef %20, i1 noundef zeroext true)
  %21 = load ptr, ptr %7, align 8
  %22 = call i32 @stnode_type_id(ptr noundef %21)
  store i32 %22, ptr %9, align 4
  %23 = load i32, ptr %9, align 4
  switch i32 %23, label %118 [
    i32 8, label %24
    i32 4, label %29
    i32 11, label %60
    i32 10, label %90
    i32 3, label %95
    i32 5, label %95
    i32 6, label %95
    i32 7, label %95
    i32 2, label %115
    i32 0, label %115
    i32 15, label %115
    i32 13, label %115
    i32 9, label %115
    i32 1, label %115
    i32 14, label %115
    i32 12, label %115
  ]

24:                                               ; preds = %18
  %25 = load ptr, ptr %4, align 8
  %26 = getelementptr inbounds nuw %struct.dfwork_t, ptr %25, i32 0, i32 3
  %27 = load i32, ptr %26, align 8
  %28 = add i32 %27, 1
  store i32 %28, ptr %26, align 8
  br label %29

29:                                               ; preds = %18, %24
  %30 = load ptr, ptr %7, align 8
  %31 = call ptr @sttype_field_hfinfo(ptr noundef %30)
  store ptr %31, ptr %8, align 8
  %32 = load ptr, ptr %7, align 8
  %33 = call i32 @sttype_field_ftenum(ptr noundef %32)
  store i32 %33, ptr %10, align 4
  %34 = load i32, ptr %10, align 4
  %35 = call zeroext i1 @ftype_can_slice(i32 noundef %34)
  br i1 %35, label %59, label %36

36:                                               ; preds = %29
  br label %37

37:                                               ; preds = %36
  br label %38

38:                                               ; preds = %37
  br label %39

39:                                               ; preds = %38
  br label %40

40:                                               ; preds = %39
  %41 = load ptr, ptr %4, align 8
  %42 = load ptr, ptr %7, align 8
  %43 = call { i64, i64 } @stnode_location(ptr noundef %42)
  %44 = getelementptr inbounds nuw { i64, i64 }, ptr %11, i32 0, i32 0
  %45 = extractvalue { i64, i64 } %43, 0
  store i64 %45, ptr %44, align 8
  %46 = getelementptr inbounds nuw { i64, i64 }, ptr %11, i32 0, i32 1
  %47 = extractvalue { i64, i64 } %43, 1
  store i64 %47, ptr %46, align 8
  %48 = load ptr, ptr %8, align 8
  %49 = getelementptr inbounds nuw %struct._header_field_info, ptr %48, i32 0, i32 1
  %50 = load ptr, ptr %49, align 8
  %51 = load i32, ptr %10, align 4
  %52 = call ptr @ftype_pretty_name(i32 noundef %51)
  %53 = getelementptr inbounds nuw { i64, i64 }, ptr %11, i32 0, i32 0
  %54 = load i64, ptr %53, align 8
  %55 = getelementptr inbounds nuw { i64, i64 }, ptr %11, i32 0, i32 1
  %56 = load i64, ptr %55, align 8
  call void (ptr, i32, i64, i64, ptr, ...) @dfilter_fail_throw(ptr noundef %41, i32 noundef -1, i64 %54, i64 %56, ptr noundef @.str.7, ptr noundef %50, ptr noundef %52) #7
  unreachable

57:                                               ; No predecessors!
  br label %58

58:                                               ; preds = %57
  br label %59

59:                                               ; preds = %58, %29
  br label %118

60:                                               ; preds = %18
  %61 = load ptr, ptr %4, align 8
  %62 = load ptr, ptr %7, align 8
  %63 = load i32, ptr %6, align 4
  %64 = call i32 @check_function(ptr noundef %61, ptr noundef %62, i32 noundef %63)
  store i32 %64, ptr %10, align 4
  %65 = load i32, ptr %10, align 4
  %66 = call zeroext i1 @ftype_can_slice(i32 noundef %65)
  br i1 %66, label %89, label %67

67:                                               ; preds = %60
  br label %68

68:                                               ; preds = %67
  br label %69

69:                                               ; preds = %68
  br label %70

70:                                               ; preds = %69
  br label %71

71:                                               ; preds = %70
  %72 = load ptr, ptr %4, align 8
  %73 = load ptr, ptr %7, align 8
  %74 = call { i64, i64 } @stnode_location(ptr noundef %73)
  %75 = getelementptr inbounds nuw { i64, i64 }, ptr %12, i32 0, i32 0
  %76 = extractvalue { i64, i64 } %74, 0
  store i64 %76, ptr %75, align 8
  %77 = getelementptr inbounds nuw { i64, i64 }, ptr %12, i32 0, i32 1
  %78 = extractvalue { i64, i64 } %74, 1
  store i64 %78, ptr %77, align 8
  %79 = load ptr, ptr %7, align 8
  %80 = call ptr @sttype_function_name(ptr noundef %79)
  %81 = load i32, ptr %10, align 4
  %82 = call ptr @ftype_pretty_name(i32 noundef %81)
  %83 = getelementptr inbounds nuw { i64, i64 }, ptr %12, i32 0, i32 0
  %84 = load i64, ptr %83, align 8
  %85 = getelementptr inbounds nuw { i64, i64 }, ptr %12, i32 0, i32 1
  %86 = load i64, ptr %85, align 8
  call void (ptr, i32, i64, i64, ptr, ...) @dfilter_fail_throw(ptr noundef %72, i32 noundef -1, i64 %84, i64 %86, ptr noundef @.str.8, ptr noundef %80, ptr noundef %82) #7
  unreachable

87:                                               ; No predecessors!
  br label %88

88:                                               ; preds = %87
  br label %89

89:                                               ; preds = %88, %60
  br label %118

90:                                               ; preds = %18
  %91 = load ptr, ptr %4, align 8
  %92 = load ptr, ptr %7, align 8
  %93 = load i32, ptr %6, align 4
  %94 = call i32 @check_slice(ptr noundef %91, ptr noundef %92, i32 noundef %93)
  store i32 %94, ptr %10, align 4
  br label %118

95:                                               ; preds = %18, %18, %18, %18
  br label %96

96:                                               ; preds = %95
  br label %97

97:                                               ; preds = %96
  br label %98

98:                                               ; preds = %97
  br label %99

99:                                               ; preds = %98
  %100 = load ptr, ptr %4, align 8
  %101 = load ptr, ptr %7, align 8
  %102 = call { i64, i64 } @stnode_location(ptr noundef %101)
  %103 = getelementptr inbounds nuw { i64, i64 }, ptr %13, i32 0, i32 0
  %104 = extractvalue { i64, i64 } %102, 0
  store i64 %104, ptr %103, align 8
  %105 = getelementptr inbounds nuw { i64, i64 }, ptr %13, i32 0, i32 1
  %106 = extractvalue { i64, i64 } %102, 1
  store i64 %106, ptr %105, align 8
  %107 = load ptr, ptr %7, align 8
  %108 = call ptr @stnode_tostr(ptr noundef %107, i1 noundef zeroext true)
  %109 = getelementptr inbounds nuw { i64, i64 }, ptr %13, i32 0, i32 0
  %110 = load i64, ptr %109, align 8
  %111 = getelementptr inbounds nuw { i64, i64 }, ptr %13, i32 0, i32 1
  %112 = load i64, ptr %111, align 8
  call void (ptr, i32, i64, i64, ptr, ...) @dfilter_fail_throw(ptr noundef %100, i32 noundef -1, i64 %110, i64 %112, ptr noundef @.str.9, ptr noundef %108) #7
  unreachable

113:                                              ; No predecessors!
  br label %114

114:                                              ; preds = %113
  br label %115

115:                                              ; preds = %18, %18, %18, %18, %18, %18, %18, %18, %114
  %116 = load i32, ptr %9, align 4
  %117 = call ptr @sttype_name(i32 noundef %116)
  call void (ptr, i32, ptr, i64, ptr, ptr, ...) @ws_log_fatal_full(ptr noundef @.str, i32 noundef 7, ptr noundef @.str.1, i64 noundef 954, ptr noundef @__func__.check_slice, ptr noundef @.str.6, ptr noundef %117) #7
  unreachable

118:                                              ; preds = %18, %90, %89, %59
  %119 = load i32, ptr %10, align 4
  %120 = icmp eq i32 %119, 26
  br i1 %120, label %136, label %121

121:                                              ; preds = %118
  %122 = load i32, ptr %10, align 4
  %123 = icmp eq i32 %122, 27
  br i1 %123, label %136, label %124

124:                                              ; preds = %121
  %125 = load i32, ptr %10, align 4
  %126 = icmp eq i32 %125, 43
  br i1 %126, label %136, label %127

127:                                              ; preds = %124
  %128 = load i32, ptr %10, align 4
  %129 = icmp eq i32 %128, 45
  br i1 %129, label %136, label %130

130:                                              ; preds = %127
  %131 = load i32, ptr %10, align 4
  %132 = icmp eq i32 %131, 28
  br i1 %132, label %136, label %133

133:                                              ; preds = %130
  %134 = load i32, ptr %10, align 4
  %135 = icmp eq i32 %134, 39
  br label %136

136:                                              ; preds = %133, %130, %127, %124, %121, %118
  %137 = phi i1 [ true, %130 ], [ true, %127 ], [ true, %124 ], [ true, %121 ], [ true, %118 ], [ %135, %133 ]
  %138 = select i1 %137, i32 26, i32 30
  call void @llvm.lifetime.end.p0(i64 4, ptr %10) #8
  call void @llvm.lifetime.end.p0(i64 4, ptr %9) #8
  call void @llvm.lifetime.end.p0(i64 8, ptr %8) #8
  call void @llvm.lifetime.end.p0(i64 8, ptr %7) #8
  ret i32 %138
}