; Function Attrs: null_pointer_is_valid sspstrong uwtable
define hidden range(i32 26, 31) i32 @check_slice(ptr noundef %0, ptr noundef %1, i32 noundef %2) local_unnamed_addr #0 {
  %4 = tail call ptr @sttype_slice_entity(ptr noundef %1)
  tail call void @resolve_unparsed(ptr noundef %0, ptr noundef %4, i1 noundef zeroext true)
  %5 = tail call i32 @stnode_type_id(ptr noundef %4)
  switch i32 %5, label %.thread46 [
    i32 8, label %6
    i32 4, label %10
    i32 11, label %21
    i32 10, label %30
    i32 3, label %32
    i32 5, label %32
    i32 6, label %32
    i32 7, label %32
    i32 2, label %37
    i32 0, label %37
    i32 15, label %37
    i32 13, label %37
    i32 9, label %37
    i32 1, label %37
    i32 14, label %37
    i32 12, label %37
  ]

6:                                                ; preds = %3
  %7 = getelementptr inbounds nuw i8, ptr %0, i64 24
  %8 = load i32, ptr %7, align 8
  %9 = add i32 %8, 1
  store i32 %9, ptr %7, align 8
  br label %10

10:                                               ; preds = %6, %3
  %11 = tail call ptr @sttype_field_hfinfo(ptr noundef %4)
  %12 = tail call i32 @sttype_field_ftenum(ptr noundef %4)
  %13 = tail call zeroext i1 @ftype_can_slice(i32 noundef %12)
  br i1 %13, label %39, label %14

14:                                               ; preds = %10
  %15 = tail call { i64, i64 } @stnode_location(ptr noundef %4)
  %16 = extractvalue { i64, i64 } %15, 0
  %17 = extractvalue { i64, i64 } %15, 1
  %18 = getelementptr inbounds nuw i8, ptr %11, i64 8
  %19 = load ptr, ptr %18, align 8
  %20 = tail call ptr @ftype_pretty_name(i32 noundef %12)
  tail call void (ptr, i32, i64, i64, ptr, ...) @dfilter_fail_throw(ptr noundef %0, i32 noundef -1, i64 %16, i64 %17, ptr noundef nonnull @.str.7, ptr noundef %19, ptr noundef %20) #7
  unreachable

21:                                               ; preds = %3
  %22 = tail call i32 @check_function(ptr noundef %0, ptr noundef %4, i32 noundef %2)
  %23 = tail call zeroext i1 @ftype_can_slice(i32 noundef %22)
  br i1 %23, label %39, label %24

24:                                               ; preds = %21
  %25 = tail call { i64, i64 } @stnode_location(ptr noundef %4)
  %26 = extractvalue { i64, i64 } %25, 0
  %27 = extractvalue { i64, i64 } %25, 1
  %28 = tail call ptr @sttype_function_name(ptr noundef %4)
  %29 = tail call ptr @ftype_pretty_name(i32 noundef %22)
  tail call void (ptr, i32, i64, i64, ptr, ...) @dfilter_fail_throw(ptr noundef %0, i32 noundef -1, i64 %26, i64 %27, ptr noundef nonnull @.str.8, ptr noundef %28, ptr noundef %29) #7
  unreachable

30:                                               ; preds = %3
  %31 = tail call i32 @check_slice(ptr noundef %0, ptr noundef %4, i32 noundef %2)
  br label %39

32:                                               ; preds = %3, %3, %3, %3
  %33 = tail call { i64, i64 } @stnode_location(ptr noundef %4)
  %34 = extractvalue { i64, i64 } %33, 0
  %35 = extractvalue { i64, i64 } %33, 1
  %36 = tail call ptr @stnode_tostr(ptr noundef %4, i1 noundef zeroext true)
  tail call void (ptr, i32, i64, i64, ptr, ...) @dfilter_fail_throw(ptr noundef %0, i32 noundef -1, i64 %34, i64 %35, ptr noundef nonnull @.str.9, ptr noundef %36) #7
  unreachable

37:                                               ; preds = %3, %3, %3, %3, %3, %3, %3, %3
  %38 = tail call ptr @sttype_name(i32 noundef %5)
  tail call void (ptr, i32, ptr, i64, ptr, ptr, ...) @ws_log_fatal_full(ptr noundef nonnull @.str, i32 noundef 7, ptr noundef nonnull @.str.1, i64 noundef 954, ptr noundef nonnull @__func__.check_slice, ptr noundef nonnull @.str.6, ptr noundef %38) #7
  unreachable

39:                                               ; preds = %21, %10, %30
  %.0 = phi i32 [ %31, %30 ], [ %22, %21 ], [ %12, %10 ]
  switch i32 %.0, label %.thread46.fold.split [
    i32 45, label %.thread46
    i32 43, label %.thread46
    i32 28, label %.thread46
    i32 27, label %.thread46
    i32 26, label %.thread46
    i32 39, label %.thread46
  ]

.thread46.fold.split:                             ; preds = %39
  br label %.thread46

.thread46:                                        ; preds = %39, %39, %39, %39, %39, %39, %.thread46.fold.split, %3
  %40 = phi i32 [ 26, %39 ], [ 26, %39 ], [ 26, %39 ], [ 26, %39 ], [ 26, %39 ], [ 30, %3 ], [ 30, %.thread46.fold.split ], [ 26, %39 ]
  ret i32 %40
}